target datalayout = "e-m:e-p270:32:32-p271:32:32-p272:64:64-i64:64-i128:128-f80:128-n8:16:32:64-S128"
target triple = "x86_64-pc-linux-gnu"

%struct.deparse_context = type { ptr, ptr, ptr, ptr, ptr, i32, i32, i32, i8, i8, i8, i8, ptr }
%union.ListCell = type { ptr }
%struct.ForEachState = type { ptr, i32 }
%struct.List = type { i32, i32, i32, ptr, [0 x %union.ListCell] }
%struct.Expr = type { i32 }
%struct.JsonConstructorExpr = type { %struct.Expr, i32, ptr, ptr, ptr, ptr, i8, i8, i32 }

@.str.2 = private unnamed_addr constant [12 x i8] c"ruleutils.c\00", align 1
@.str.23 = private unnamed_addr constant [3 x i8] c", \00", align 1
@.str.193 = private unnamed_addr constant [4 x i8] c" : \00", align 1
@.str.204 = private unnamed_addr constant [4 x i8] c"%s(\00", align 1
@.str.273 = private unnamed_addr constant [15 x i8] c"JSON_OBJECTAGG\00", align 1
@.str.274 = private unnamed_addr constant [14 x i8] c"JSON_ARRAYAGG\00", align 1
@.str.275 = private unnamed_addr constant [12 x i8] c"JSON_OBJECT\00", align 1
@.str.276 = private unnamed_addr constant [11 x i8] c"JSON_ARRAY\00", align 1
@.str.277 = private unnamed_addr constant [5 x i8] c"JSON\00", align 1
@.str.278 = private unnamed_addr constant [12 x i8] c"JSON_SCALAR\00", align 1
@.str.279 = private unnamed_addr constant [15 x i8] c"JSON_SERIALIZE\00", align 1
@.str.280 = private unnamed_addr constant [31 x i8] c"invalid JsonConstructorType %d\00", align 1
@__func__.get_json_constructor = private unnamed_addr constant [21 x i8] c"get_json_constructor\00", align 1

; Function Attrs: nounwind uwtable
define internal void @get_json_constructor(ptr noundef %0, ptr noundef %1, i1 noundef zeroext %2) #0 {
  %4 = alloca ptr, align 8
  %5 = alloca ptr, align 8
  %6 = alloca i8, align 1
  %7 = alloca ptr, align 8
  %8 = alloca ptr, align 8
  %9 = alloca i8, align 1
  %10 = alloca i32, align 4
  %11 = alloca ptr, align 8
  %12 = alloca i32, align 4
  %13 = alloca %struct.ForEachState, align 8
  %14 = alloca ptr, align 8
  store ptr %0, ptr %4, align 8
  store ptr %1, ptr %5, align 8
  %15 = zext i1 %2 to i8
  store i8 %15, ptr %6, align 1
  call void @llvm.lifetime.start.p0(i64 8, ptr %7) #10
  %16 = load ptr, ptr %5, align 8
  %17 = getelementptr inbounds nuw %struct.deparse_context, ptr %16, i32 0, i32 0
  %18 = load ptr, ptr %17, align 8
  store ptr %18, ptr %7, align 8
  call void @llvm.lifetime.start.p0(i64 8, ptr %8) #10
  call void @llvm.lifetime.start.p0(i64 1, ptr %9) #10
  call void @llvm.lifetime.start.p0(i64 4, ptr %10) #10
  call void @llvm.lifetime.start.p0(i64 8, ptr %11) #10
  %19 = load ptr, ptr %4, align 8
  %20 = getelementptr inbounds nuw %struct.JsonConstructorExpr, ptr %19, i32 0, i32 1
  %21 = load i32, ptr %20, align 4
  %22 = icmp eq i32 %21, 3
  br i1 %22, label %23, label %26

23:                                               ; preds = %3
  %24 = load ptr, ptr %4, align 8
  %25 = load ptr, ptr %5, align 8
  call void @get_json_agg_constructor(ptr noundef %24, ptr noundef %25, ptr noundef @.str.273, i1 noundef zeroext true)
  store i32 1, ptr %12, align 4
  br label %127

26:                                               ; preds = %3
  %27 = load ptr, ptr %4, align 8
  %28 = getelementptr inbounds nuw %struct.JsonConstructorExpr, ptr %27, i32 0, i32 1
  %29 = load i32, ptr %28, align 4
  %30 = icmp eq i32 %29, 4
  br i1 %30, label %31, label %34

31:                                               ; preds = %26
  %32 = load ptr, ptr %4, align 8
  %33 = load ptr, ptr %5, align 8
  call void @get_json_agg_constructor(ptr noundef %32, ptr noundef %33, ptr noundef @.str.274, i1 noundef zeroext false)
  store i32 1, ptr %12, align 4
  br label %127

34:                                               ; preds = %26
  br label %35

35:                                               ; preds = %34
  %36 = load ptr, ptr %4, align 8
  %37 = getelementptr inbounds nuw %struct.JsonConstructorExpr, ptr %36, i32 0, i32 1
  %38 = load i32, ptr %37, align 4
  switch i32 %38, label %44 [
    i32 1, label %39
    i32 2, label %40
    i32 5, label %41
    i32 6, label %42
    i32 7, label %43
  ]

39:                                               ; preds = %35
  store ptr @.str.275, ptr %8, align 8
  br label %58

40:                                               ; preds = %35
  store ptr @.str.276, ptr %8, align 8
  br label %58

41:                                               ; preds = %35
  store ptr @.str.277, ptr %8, align 8
  br label %58

42:                                               ; preds = %35
  store ptr @.str.278, ptr %8, align 8
  br label %58

43:                                               ; preds = %35
  store ptr @.str.279, ptr %8, align 8
  br label %58

44:                                               ; preds = %35
  br label %45

45:                                               ; preds = %44
  br i1 true, label %46, label %48

46:                                               ; preds = %45
  %47 = call zeroext i1 @errstart_cold(i32 noundef 21, ptr noundef null) #11
  br i1 %47, label %50, label %55

48:                                               ; preds = %45
  %49 = call zeroext i1 @errstart(i32 noundef 21, ptr noundef null)
  br i1 %49, label %50, label %55

50:                                               ; preds = %48, %46
  %51 = load ptr, ptr %4, align 8
  %52 = getelementptr inbounds nuw %struct.JsonConstructorExpr, ptr %51, i32 0, i32 1
  %53 = load i32, ptr %52, align 4
  %54 = call i32 (ptr, ...) @errmsg_internal(ptr noundef @.str.280, i32 noundef %53)
  call void @errfinish(ptr noundef @.str.2, i32 noundef 11621, ptr noundef @__func__.get_json_constructor)
  br label %55

55:                                               ; preds = %50, %48, %46
  unreachable

56:                                               ; No predecessors!
  br label %57

57:                                               ; preds = %56
  br label %58

58:                                               ; preds = %57, %43, %42, %41, %40, %39
  %59 = load ptr, ptr %7, align 8
  %60 = load ptr, ptr %8, align 8
  call void (ptr, ptr, ...) @appendStringInfo(ptr noundef %59, ptr noundef @.str.204, ptr noundef %60)
  %61 = load ptr, ptr %4, align 8
  %62 = getelementptr inbounds nuw %struct.JsonConstructorExpr, ptr %61, i32 0, i32 1
  %63 = load i32, ptr %62, align 4
  %64 = icmp eq i32 %63, 1
  %65 = zext i1 %64 to i8
  store i8 %65, ptr %9, align 1
  call void @llvm.lifetime.start.p0(i64 16, ptr %13) #10
  %66 = getelementptr inbounds nuw %struct.ForEachState, ptr %13, i32 0, i32 0
  %67 = load ptr, ptr %4, align 8
  %68 = getelementptr inbounds nuw %struct.JsonConstructorExpr, ptr %67, i32 0, i32 2
  %69 = load ptr, ptr %68, align 8
  store ptr %69, ptr %66, align 8
  %70 = getelementptr inbounds nuw %struct.ForEachState, ptr %13, i32 0, i32 1
  store i32 0, ptr %70, align 8
  %71 = getelementptr i8, ptr %13, i64 12
  call void @llvm.memset.p0.i64(ptr align 4 %71, i8 0, i64 4, i1 false)
  br label %72

72:                                               ; preds = %119, %58
  %73 = getelementptr inbounds nuw %struct.ForEachState, ptr %13, i32 0, i32 0
  %74 = load ptr, ptr %73, align 8
  %75 = icmp ne ptr %74, null
  br i1 %75, label %76, label %93

76:                                               ; preds = %72
  %77 = getelementptr inbounds nuw %struct.ForEachState, ptr %13, i32 0, i32 1
  %78 = load i32, ptr %77, align 8
  %79 = getelementptr inbounds nuw %struct.ForEachState, ptr %13, i32 0, i32 0
  %80 = load ptr, ptr %79, align 8
  %81 = getelementptr inbounds nuw %struct.List, ptr %80, i32 0, i32 1
  %82 = load i32, ptr %81, align 4
  %83 = icmp slt i32 %78, %82
  br i1 %83, label %84, label %93

84:                                               ; preds = %76
  %85 = getelementptr inbounds nuw %struct.ForEachState, ptr %13, i32 0, i32 0
  %86 = load ptr, ptr %85, align 8
  %87 = getelementptr inbounds nuw %struct.List, ptr %86, i32 0, i32 3
  %88 = load ptr, ptr %87, align 8
  %89 = getelementptr inbounds nuw %struct.ForEachState, ptr %13, i32 0, i32 1
  %90 = load i32, ptr %89, align 8
  %91 = sext i32 %90 to i64
  %92 = getelementptr inbounds %union.ListCell, ptr %88, i64 %91
  store ptr %92, ptr %11, align 8
  br label %94

93:                                               ; preds = %76, %72
  store ptr null, ptr %11, align 8
  br label %94

94:                                               ; preds = %93, %84
  %95 = phi i32 [ 1, %84 ], [ 0, %93 ]
  %96 = icmp ne i32 %95, 0
  br i1 %96, label %98, label %97

97:                                               ; preds = %94
  store i32 5, ptr %12, align 4
  call void @llvm.lifetime.end.p0(i64 16, ptr %13) #10
  br label %123

98:                                               ; preds = %94
  %99 = getelementptr inbounds nuw %struct.ForEachState, ptr %13, i32 0, i32 1
  %100 = load i32, ptr %99, align 8
  store i32 %100, ptr %10, align 4
  %101 = load i32, ptr %10, align 4
  %102 = icmp sgt i32 %101, 0
  br i1 %102, label %103, label %115

103:                                              ; preds = %98
  call void @llvm.lifetime.start.p0(i64 8, ptr %14) #10
  %104 = load i8, ptr %9, align 1, !range !4, !noundef !5
  %105 = trunc i8 %104 to i1
  br i1 %105, label %106, label %110

106:                                              ; preds = %103
  %107 = load i32, ptr %10, align 4
  %108 = srem i32 %107, 2
  %109 = icmp ne i32 %108, 0
  br label %110

110:                                              ; preds = %106, %103
  %111 = phi i1 [ false, %103 ], [ %109, %106 ]
  %112 = select i1 %111, ptr @.str.193, ptr @.str.23
  store ptr %112, ptr %14, align 8
  %113 = load ptr, ptr %7, align 8
  %114 = load ptr, ptr %14, align 8
  call void @appendStringInfoString(ptr noundef %113, ptr noundef %114)
  call void @llvm.lifetime.end.p0(i64 8, ptr %14) #10
  br label %115

115:                                              ; preds = %110, %98
  %116 = load ptr, ptr %11, align 8
  %117 = load ptr, ptr %116, align 8
  %118 = load ptr, ptr %5, align 8
  call void @get_rule_expr(ptr noundef %117, ptr noundef %118, i1 noundef zeroext true)
  br label %119

119:                                              ; preds = %115
  %120 = getelementptr inbounds nuw %struct.ForEachState, ptr %13, i32 0, i32 1
  %121 = load i32, ptr %120, align 8
  %122 = add i32 %121, 1
  store i32 %122, ptr %120, align 8
  br label %72, !llvm.loop !89

123:                                              ; preds = %97
  %124 = load ptr, ptr %4, align 8
  %125 = load ptr, ptr %7, align 8
  call void @get_json_constructor_options(ptr noundef %124, ptr noundef %125)
  %126 = load ptr, ptr %7, align 8
  call void @appendStringInfoChar(ptr noundef %126, i8 noundef signext 41)
  store i32 0, ptr %12, align 4
  br label %127

127:                                              ; preds = %123, %31, %23
  call void @llvm.lifetime.end.p0(i64 8, ptr %11) #10
  call void @llvm.lifetime.end.p0(i64 4, ptr %10) #10
  call void @llvm.lifetime.end.p0(i64 1, ptr %9) #10
  call void @llvm.lifetime.end.p0(i64 8, ptr %8) #10
  call void @llvm.lifetime.end.p0(i64 8, ptr %7) #10
  %128 = load i32, ptr %12, align 4
  switch i32 %128, label %130 [
    i32 0, label %129
    i32 1, label %129
  ]

129:                                              ; preds = %127, %127
  ret void

130:                                              ; preds = %127
  unreachable
}