; Function Attrs: nounwind uwtable
define internal fastcc void @get_json_constructor(ptr noundef nonnull readonly captures(none) %0, ptr noundef %1) unnamed_addr #0 {
  %3 = load ptr, ptr %1, align 8
  %4 = getelementptr inbounds nuw i8, ptr %0, i64 4
  %5 = load i32, ptr %4, align 4
  switch i32 %5, label %12 [
    i32 3, label %6
    i32 4, label %7
    i32 1, label %16
    i32 2, label %8
    i32 5, label %9
    i32 6, label %10
    i32 7, label %11
  ]

6:                                                ; preds = %2
  tail call fastcc void @get_json_agg_constructor(ptr noundef %0, ptr noundef nonnull %1, ptr noundef nonnull @.str.273, i1 noundef zeroext true)
  br label %43

7:                                                ; preds = %2
  tail call fastcc void @get_json_agg_constructor(ptr noundef %0, ptr noundef nonnull %1, ptr noundef nonnull @.str.274, i1 noundef zeroext false)
  br label %43

8:                                                ; preds = %2
  br label %16

9:                                                ; preds = %2
  br label %16

10:                                               ; preds = %2
  br label %16

11:                                               ; preds = %2
  br label %16

12:                                               ; preds = %2
  %13 = tail call zeroext i1 @errstart_cold(i32 noundef 21, ptr noundef null) #12
  tail call void @llvm.assume(i1 %13)
  %14 = load i32, ptr %4, align 4
  %15 = tail call i32 (ptr, ...) @errmsg_internal(ptr noundef nonnull @.str.280, i32 noundef %14) #11
  tail call void @errfinish(ptr noundef nonnull @.str.2, i32 noundef 11621, ptr noundef nonnull @__func__.get_json_constructor) #11
  unreachable

16:                                               ; preds = %2, %11, %10, %9, %8
  %.0 = phi ptr [ @.str.279, %11 ], [ @.str.278, %10 ], [ @.str.277, %9 ], [ @.str.276, %8 ], [ @.str.275, %2 ]
  tail call void (ptr, ptr, ...) @appendStringInfo(ptr noundef %3, ptr noundef nonnull @.str.204, ptr noundef nonnull %.0) #11
  %17 = getelementptr inbounds nuw i8, ptr %0, i64 8
  %18 = load ptr, ptr %17, align 8
  %19 = getelementptr inbounds nuw i8, ptr %18, i64 4
  %.not = icmp eq ptr %18, null
  br i1 %.not, label %._crit_edge, label %.lr.ph

.lr.ph:                                           ; preds = %16
  %20 = load i32, ptr %4, align 4
  %.fr43 = freeze i32 %20
  %21 = icmp eq i32 %.fr43, 1
  %22 = getelementptr inbounds nuw i8, ptr %18, i64 16
  %23 = load i32, ptr %19, align 4
  %24 = icmp sgt i32 %23, 0
  br i1 %21, label %.lr.ph.split.us.split, label %.lr.ph.split.split

.lr.ph.split.us.split:                            ; preds = %.lr.ph
  br i1 %24, label %.lr.ph42, label %._crit_edge

.lr.ph42:                                         ; preds = %.lr.ph.split.us.split, %30
  %indvars.iv46 = phi i64 [ %indvars.iv.next47, %30 ], [ 0, %.lr.ph.split.us.split ]
  %25 = load ptr, ptr %22, align 8
  %26 = getelementptr inbounds nuw %union.ListCell, ptr %25, i64 %indvars.iv46
  %.not34.us = icmp eq i64 %indvars.iv46, 0
  br i1 %.not34.us, label %30, label %27

27:                                               ; preds = %.lr.ph42
  %28 = and i64 %indvars.iv46, 1
  %.not31.us = icmp eq i64 %28, 0
  %29 = select i1 %.not31.us, ptr @.str.23, ptr @.str.193
  tail call void @appendStringInfoString(ptr noundef %3, ptr noundef nonnull %29) #11
  br label %30

30:                                               ; preds = %27, %.lr.ph42
  %31 = load ptr, ptr %26, align 8
  tail call fastcc void @get_rule_expr(ptr noundef %31, ptr noundef nonnull %1, i1 noundef zeroext true)
  %indvars.iv.next47 = add nuw nsw i64 %indvars.iv46, 1
  %32 = load i32, ptr %19, align 4
  %33 = sext i32 %32 to i64
  %34 = icmp slt i64 %indvars.iv.next47, %33
  br i1 %34, label %.lr.ph42, label %._crit_edge

.lr.ph.split.split:                               ; preds = %.lr.ph
  br i1 %24, label %.lr.ph40, label %._crit_edge

._crit_edge:                                      ; preds = %38, %30, %.lr.ph.split.us.split, %.lr.ph.split.split, %16
  tail call fastcc void @get_json_constructor_options(ptr noundef %0, ptr noundef %3)
  tail call void @appendStringInfoChar(ptr noundef %3, i8 noundef signext 41) #11
  br label %43

.lr.ph40:                                         ; preds = %.lr.ph.split.split, %38
  %indvars.iv = phi i64 [ %indvars.iv.next, %38 ], [ 0, %.lr.ph.split.split ]
  %35 = load ptr, ptr %22, align 8
  %36 = getelementptr inbounds nuw %union.ListCell, ptr %35, i64 %indvars.iv
  %.not34 = icmp eq i64 %indvars.iv, 0
  br i1 %.not34, label %38, label %37

37:                                               ; preds = %.lr.ph40
  tail call void @appendStringInfoString(ptr noundef %3, ptr noundef nonnull @.str.23) #11
  br label %38

38:                                               ; preds = %37, %.lr.ph40
  %39 = load ptr, ptr %36, align 8
  tail call fastcc void @get_rule_expr(ptr noundef %39, ptr noundef nonnull %1, i1 noundef zeroext true)
  %indvars.iv.next = add nuw nsw i64 %indvars.iv, 1
  %40 = load i32, ptr %19, align 4
  %41 = sext i32 %40 to i64
  %42 = icmp slt i64 %indvars.iv.next, %41
  br i1 %42, label %.lr.ph40, label %._crit_edge

43:                                               ; preds = %._crit_edge, %7, %6
  ret void
}